target datalayout = "e-m:e-p270:32:32-p271:32:32-p272:64:64-i64:64-i128:128-f80:128-n8:16:32:64-S128"
target triple = "x86_64-pc-linux-gnu"

%union.Value = type { ptr }
%struct.Table = type { ptr, i8, i8, i8, i8, i32, ptr, ptr, ptr, ptr }
%struct.TValue = type { %union.Value, i8 }
%union.Node = type { %struct.NodeKey }
%struct.NodeKey = type { %union.Value, i8, i8, i32, %union.Value }
%struct.TString = type { ptr, i8, i8, i8, i8, i32, %union.anon, ptr, ptr, ptr }
%union.anon = type { i64 }

; Function Attrs: nounwind uwtable
define internal i32 @l_hashfloat(double noundef %0) #0 {
  %2 = alloca i32, align 4
  %3 = alloca double, align 8
  %4 = alloca i32, align 4
  %5 = alloca i64, align 8
  %6 = alloca i32, align 4
  %7 = alloca i32, align 4
  store double %0, ptr %3, align 8, !tbaa !49
  call void @llvm.lifetime.start.p0(i64 4, ptr %4) #8
  call void @llvm.lifetime.start.p0(i64 8, ptr %5) #8
  %8 = load double, ptr %3, align 8, !tbaa !49
  %9 = call double @frexp(double noundef %8, ptr noundef %4) #8
  %10 = fmul double %9, 0x41E0000000000000
  store double %10, ptr %3, align 8, !tbaa !49
  %11 = load double, ptr %3, align 8, !tbaa !49
  %12 = fcmp oge double %11, 0xC3E0000000000000
  br i1 %12, label %13, label %19

13:                                               ; preds = %1
  %14 = load double, ptr %3, align 8, !tbaa !49
  %15 = fcmp olt double %14, 0x43E0000000000000
  br i1 %15, label %16, label %19

16:                                               ; preds = %13
  %17 = load double, ptr %3, align 8, !tbaa !49
  %18 = fptosi double %17 to i64
  store i64 %18, ptr %5, align 8, !tbaa !38
  br i1 true, label %20, label %19

19:                                               ; preds = %16, %13, %1
  store i32 0, ptr %2, align 4
  store i32 1, ptr %6, align 4
  br label %34

20:                                               ; preds = %16
  call void @llvm.lifetime.start.p0(i64 4, ptr %7) #8
  %21 = load i32, ptr %4, align 4, !tbaa !19
  %22 = load i64, ptr %5, align 8, !tbaa !38
  %23 = trunc i64 %22 to i32
  %24 = add i32 %21, %23
  store i32 %24, ptr %7, align 4, !tbaa !19
  %25 = load i32, ptr %7, align 4, !tbaa !19
  %26 = icmp ule i32 %25, 2147483647
  br i1 %26, label %27, label %29

27:                                               ; preds = %20
  %28 = load i32, ptr %7, align 4, !tbaa !19
  br label %32

29:                                               ; preds = %20
  %30 = load i32, ptr %7, align 4, !tbaa !19
  %31 = xor i32 %30, -1
  br label %32

32:                                               ; preds = %29, %27
  %33 = phi i32 [ %28, %27 ], [ %31, %29 ]
  store i32 %33, ptr %2, align 4
  store i32 1, ptr %6, align 4
  call void @llvm.lifetime.end.p0(i64 4, ptr %7) #8
  br label %34

34:                                               ; preds = %32, %19
  call void @llvm.lifetime.end.p0(i64 8, ptr %5) #8
  call void @llvm.lifetime.end.p0(i64 4, ptr %4) #8
  %35 = load i32, ptr %2, align 4
  ret i32 %35
}

; Function Attrs: nounwind uwtable
define internal ptr @hashint(ptr noundef %0, i64 noundef %1) #0 {
  %3 = alloca ptr, align 8
  %4 = alloca ptr, align 8
  %5 = alloca i64, align 8
  %6 = alloca i64, align 8
  %7 = alloca i32, align 4
  store ptr %0, ptr %4, align 8, !tbaa !9
  store i64 %1, ptr %5, align 8, !tbaa !38
  call void @llvm.lifetime.start.p0(i64 8, ptr %6) #8
  %8 = load i64, ptr %5, align 8, !tbaa !38
  store i64 %8, ptr %6, align 8, !tbaa !38
  %9 = load i64, ptr %6, align 8, !tbaa !38
  %10 = icmp ule i64 %9, 2147483647
  br i1 %10, label %11, label %27

11:                                               ; preds = %2
  %12 = load ptr, ptr %4, align 8, !tbaa !9
  %13 = getelementptr inbounds nuw %struct.Table, ptr %12, i32 0, i32 7
  %14 = load ptr, ptr %13, align 8, !tbaa !28
  %15 = load i64, ptr %6, align 8, !tbaa !38
  %16 = trunc i64 %15 to i32
  %17 = load ptr, ptr %4, align 8, !tbaa !9
  %18 = getelementptr inbounds nuw %struct.Table, ptr %17, i32 0, i32 4
  %19 = load i8, ptr %18, align 1, !tbaa !27
  %20 = zext i8 %19 to i32
  %21 = shl i32 1, %20
  %22 = sub i32 %21, 1
  %23 = or i32 %22, 1
  %24 = srem i32 %16, %23
  %25 = sext i32 %24 to i64
  %26 = getelementptr inbounds %union.Node, ptr %14, i64 %25
  store ptr %26, ptr %3, align 8
  store i32 1, ptr %7, align 4
  br label %42

27:                                               ; preds = %2
  %28 = load ptr, ptr %4, align 8, !tbaa !9
  %29 = getelementptr inbounds nuw %struct.Table, ptr %28, i32 0, i32 7
  %30 = load ptr, ptr %29, align 8, !tbaa !28
  %31 = load i64, ptr %6, align 8, !tbaa !38
  %32 = load ptr, ptr %4, align 8, !tbaa !9
  %33 = getelementptr inbounds nuw %struct.Table, ptr %32, i32 0, i32 4
  %34 = load i8, ptr %33, align 1, !tbaa !27
  %35 = zext i8 %34 to i32
  %36 = shl i32 1, %35
  %37 = sub i32 %36, 1
  %38 = or i32 %37, 1
  %39 = zext i32 %38 to i64
  %40 = urem i64 %31, %39
  %41 = getelementptr inbounds nuw %union.Node, ptr %30, i64 %40
  store ptr %41, ptr %3, align 8
  store i32 1, ptr %7, align 4
  br label %42

42:                                               ; preds = %27, %11
  call void @llvm.lifetime.end.p0(i64 8, ptr %6) #8
  %43 = load ptr, ptr %3, align 8
  ret ptr %43
}

; Function Attrs: nounwind uwtable
define internal ptr @mainpositionTV(ptr noundef %0, ptr noundef %1) #0 {
  %3 = alloca ptr, align 8
  %4 = alloca ptr, align 8
  %5 = alloca ptr, align 8
  %6 = alloca i64, align 8
  %7 = alloca double, align 8
  %8 = alloca ptr, align 8
  %9 = alloca ptr, align 8
  %10 = alloca ptr, align 8
  %11 = alloca ptr, align 8
  %12 = alloca ptr, align 8
  store ptr %0, ptr %4, align 8, !tbaa !9
  store ptr %1, ptr %5, align 8, !tbaa !22
  %13 = load ptr, ptr %5, align 8, !tbaa !22
  %14 = getelementptr inbounds nuw %struct.TValue, ptr %13, i32 0, i32 1
  %15 = load i8, ptr %14, align 8, !tbaa !24
  %16 = zext i8 %15 to i32
  %17 = and i32 %16, 63
  switch i32 %17, label %149 [
    i32 3, label %18
    i32 19, label %25
    i32 4, label %44
    i32 20, label %63
    i32 1, label %81
    i32 17, label %94
    i32 2, label %107
    i32 22, label %128
  ]

18:                                               ; preds = %2
  call void @llvm.lifetime.start.p0(i64 8, ptr %6) #8
  %19 = load ptr, ptr %5, align 8, !tbaa !22
  %20 = getelementptr inbounds nuw %struct.TValue, ptr %19, i32 0, i32 0
  %21 = load i64, ptr %20, align 8, !tbaa !21
  store i64 %21, ptr %6, align 8, !tbaa !38
  %22 = load ptr, ptr %4, align 8, !tbaa !9
  %23 = load i64, ptr %6, align 8, !tbaa !38
  %24 = call ptr @hashint(ptr noundef %22, i64 noundef %23)
  store ptr %24, ptr %3, align 8
  call void @llvm.lifetime.end.p0(i64 8, ptr %6) #8
  br label %170

25:                                               ; preds = %2
  call void @llvm.lifetime.start.p0(i64 8, ptr %7) #8
  %26 = load ptr, ptr %5, align 8, !tbaa !22
  %27 = getelementptr inbounds nuw %struct.TValue, ptr %26, i32 0, i32 0
  %28 = load double, ptr %27, align 8, !tbaa !21
  store double %28, ptr %7, align 8, !tbaa !49
  %29 = load ptr, ptr %4, align 8, !tbaa !9
  %30 = getelementptr inbounds nuw %struct.Table, ptr %29, i32 0, i32 7
  %31 = load ptr, ptr %30, align 8, !tbaa !28
  %32 = load double, ptr %7, align 8, !tbaa !49
  %33 = call i32 @l_hashfloat(double noundef %32)
  %34 = load ptr, ptr %4, align 8, !tbaa !9
  %35 = getelementptr inbounds nuw %struct.Table, ptr %34, i32 0, i32 4
  %36 = load i8, ptr %35, align 1, !tbaa !27
  %37 = zext i8 %36 to i32
  %38 = shl i32 1, %37
  %39 = sub i32 %38, 1
  %40 = or i32 %39, 1
  %41 = urem i32 %33, %40
  %42 = zext i32 %41 to i64
  %43 = getelementptr inbounds nuw %union.Node, ptr %31, i64 %42
  store ptr %43, ptr %3, align 8
  call void @llvm.lifetime.end.p0(i64 8, ptr %7) #8
  br label %170

44:                                               ; preds = %2
  call void @llvm.lifetime.start.p0(i64 8, ptr %8) #8
  %45 = load ptr, ptr %5, align 8, !tbaa !22
  %46 = getelementptr inbounds nuw %struct.TValue, ptr %45, i32 0, i32 0
  %47 = load ptr, ptr %46, align 8, !tbaa !21
  store ptr %47, ptr %8, align 8, !tbaa !40
  %48 = load ptr, ptr %4, align 8, !tbaa !9
  %49 = getelementptr inbounds nuw %struct.Table, ptr %48, i32 0, i32 7
  %50 = load ptr, ptr %49, align 8, !tbaa !28
  %51 = load ptr, ptr %8, align 8, !tbaa !40
  %52 = getelementptr inbounds nuw %struct.TString, ptr %51, i32 0, i32 5
  %53 = load i32, ptr %52, align 4, !tbaa !42
  %54 = load ptr, ptr %4, align 8, !tbaa !9
  %55 = getelementptr inbounds nuw %struct.Table, ptr %54, i32 0, i32 4
  %56 = load i8, ptr %55, align 1, !tbaa !27
  %57 = zext i8 %56 to i32
  %58 = shl i32 1, %57
  %59 = sub i32 %58, 1
  %60 = and i32 %53, %59
  %61 = zext i32 %60 to i64
  %62 = getelementptr inbounds nuw %union.Node, ptr %50, i64 %61
  store ptr %62, ptr %3, align 8
  call void @llvm.lifetime.end.p0(i64 8, ptr %8) #8
  br label %170

63:                                               ; preds = %2
  call void @llvm.lifetime.start.p0(i64 8, ptr %9) #8
  %64 = load ptr, ptr %5, align 8, !tbaa !22
  %65 = getelementptr inbounds nuw %struct.TValue, ptr %64, i32 0, i32 0
  %66 = load ptr, ptr %65, align 8, !tbaa !21
  store ptr %66, ptr %9, align 8, !tbaa !40
  %67 = load ptr, ptr %4, align 8, !tbaa !9
  %68 = getelementptr inbounds nuw %struct.Table, ptr %67, i32 0, i32 7
  %69 = load ptr, ptr %68, align 8, !tbaa !28
  %70 = load ptr, ptr %9, align 8, !tbaa !40
  %71 = call i32 @luaS_hashlongstr(ptr noundef %70)
  %72 = load ptr, ptr %4, align 8, !tbaa !9
  %73 = getelementptr inbounds nuw %struct.Table, ptr %72, i32 0, i32 4
  %74 = load i8, ptr %73, align 1, !tbaa !27
  %75 = zext i8 %74 to i32
  %76 = shl i32 1, %75
  %77 = sub i32 %76, 1
  %78 = and i32 %71, %77
  %79 = zext i32 %78 to i64
  %80 = getelementptr inbounds nuw %union.Node, ptr %69, i64 %79
  store ptr %80, ptr %3, align 8
  call void @llvm.lifetime.end.p0(i64 8, ptr %9) #8
  br label %170

81:                                               ; preds = %2
  %82 = load ptr, ptr %4, align 8, !tbaa !9
  %83 = getelementptr inbounds nuw %struct.Table, ptr %82, i32 0, i32 7
  %84 = load ptr, ptr %83, align 8, !tbaa !28
  %85 = load ptr, ptr %4, align 8, !tbaa !9
  %86 = getelementptr inbounds nuw %struct.Table, ptr %85, i32 0, i32 4
  %87 = load i8, ptr %86, align 1, !tbaa !27
  %88 = zext i8 %87 to i32
  %89 = shl i32 1, %88
  %90 = sub i32 %89, 1
  %91 = and i32 0, %90
  %92 = zext i32 %91 to i64
  %93 = getelementptr inbounds nuw %union.Node, ptr %84, i64 %92
  store ptr %93, ptr %3, align 8
  br label %170

94:                                               ; preds = %2
  %95 = load ptr, ptr %4, align 8, !tbaa !9
  %96 = getelementptr inbounds nuw %struct.Table, ptr %95, i32 0, i32 7
  %97 = load ptr, ptr %96, align 8, !tbaa !28
  %98 = load ptr, ptr %4, align 8, !tbaa !9
  %99 = getelementptr inbounds nuw %struct.Table, ptr %98, i32 0, i32 4
  %100 = load i8, ptr %99, align 1, !tbaa !27
  %101 = zext i8 %100 to i32
  %102 = shl i32 1, %101
  %103 = sub i32 %102, 1
  %104 = and i32 1, %103
  %105 = zext i32 %104 to i64
  %106 = getelementptr inbounds nuw %union.Node, ptr %97, i64 %105
  store ptr %106, ptr %3, align 8
  br label %170

107:                                              ; preds = %2
  call void @llvm.lifetime.start.p0(i64 8, ptr %10) #8
  %108 = load ptr, ptr %5, align 8, !tbaa !22
  %109 = getelementptr inbounds nuw %struct.TValue, ptr %108, i32 0, i32 0
  %110 = load ptr, ptr %109, align 8, !tbaa !21
  store ptr %110, ptr %10, align 8, !tbaa !53
  %111 = load ptr, ptr %4, align 8, !tbaa !9
  %112 = getelementptr inbounds nuw %struct.Table, ptr %111, i32 0, i32 7
  %113 = load ptr, ptr %112, align 8, !tbaa !28
  %114 = load ptr, ptr %10, align 8, !tbaa !53
  %115 = ptrtoint ptr %114 to i64
  %116 = and i64 %115, 4294967295
  %117 = trunc i64 %116 to i32
  %118 = load ptr, ptr %4, align 8, !tbaa !9
  %119 = getelementptr inbounds nuw %struct.Table, ptr %118, i32 0, i32 4
  %120 = load i8, ptr %119, align 1, !tbaa !27
  %121 = zext i8 %120 to i32
  %122 = shl i32 1, %121
  %123 = sub i32 %122, 1
  %124 = or i32 %123, 1
  %125 = urem i32 %117, %124
  %126 = zext i32 %125 to i64
  %127 = getelementptr inbounds nuw %union.Node, ptr %113, i64 %126
  store ptr %127, ptr %3, align 8
  call void @llvm.lifetime.end.p0(i64 8, ptr %10) #8
  br label %170

128:                                              ; preds = %2
  call void @llvm.lifetime.start.p0(i64 8, ptr %11) #8
  %129 = load ptr, ptr %5, align 8, !tbaa !22
  %130 = getelementptr inbounds nuw %struct.TValue, ptr %129, i32 0, i32 0
  %131 = load ptr, ptr %130, align 8, !tbaa !21
  store ptr %131, ptr %11, align 8, !tbaa !53
  %132 = load ptr, ptr %4, align 8, !tbaa !9
  %133 = getelementptr inbounds nuw %struct.Table, ptr %132, i32 0, i32 7
  %134 = load ptr, ptr %133, align 8, !tbaa !28
  %135 = load ptr, ptr %11, align 8, !tbaa !53
  %136 = ptrtoint ptr %135 to i64
  %137 = and i64 %136, 4294967295
  %138 = trunc i64 %137 to i32
  %139 = load ptr, ptr %4, align 8, !tbaa !9
  %140 = getelementptr inbounds nuw %struct.Table, ptr %139, i32 0, i32 4
  %141 = load i8, ptr %140, align 1, !tbaa !27
  %142 = zext i8 %141 to i32
  %143 = shl i32 1, %142
  %144 = sub i32 %143, 1
  %145 = or i32 %144, 1
  %146 = urem i32 %138, %145
  %147 = zext i32 %146 to i64
  %148 = getelementptr inbounds nuw %union.Node, ptr %134, i64 %147
  store ptr %148, ptr %3, align 8
  call void @llvm.lifetime.end.p0(i64 8, ptr %11) #8
  br label %170

149:                                              ; preds = %2
  call void @llvm.lifetime.start.p0(i64 8, ptr %12) #8
  %150 = load ptr, ptr %5, align 8, !tbaa !22
  %151 = getelementptr inbounds nuw %struct.TValue, ptr %150, i32 0, i32 0
  %152 = load ptr, ptr %151, align 8, !tbaa !21
  store ptr %152, ptr %12, align 8, !tbaa !36
  %153 = load ptr, ptr %4, align 8, !tbaa !9
  %154 = getelementptr inbounds nuw %struct.Table, ptr %153, i32 0, i32 7
  %155 = load ptr, ptr %154, align 8, !tbaa !28
  %156 = load ptr, ptr %12, align 8, !tbaa !36
  %157 = ptrtoint ptr %156 to i64
  %158 = and i64 %157, 4294967295
  %159 = trunc i64 %158 to i32
  %160 = load ptr, ptr %4, align 8, !tbaa !9
  %161 = getelementptr inbounds nuw %struct.Table, ptr %160, i32 0, i32 4
  %162 = load i8, ptr %161, align 1, !tbaa !27
  %163 = zext i8 %162 to i32
  %164 = shl i32 1, %163
  %165 = sub i32 %164, 1
  %166 = or i32 %165, 1
  %167 = urem i32 %159, %166
  %168 = zext i32 %167 to i64
  %169 = getelementptr inbounds nuw %union.Node, ptr %155, i64 %168
  store ptr %169, ptr %3, align 8
  call void @llvm.lifetime.end.p0(i64 8, ptr %12) #8
  br label %170

170:                                              ; preds = %149, %128, %107, %94, %81, %63, %44, %25, %18
  %171 = load ptr, ptr %3, align 8
  ret ptr %171
}