; Function Attrs: nounwind uwtable
define internal fastcc ptr @mainpositionTV(ptr noundef readonly captures(none) %0, ptr noundef readonly captures(none) %1) unnamed_addr #0 {
  %3 = alloca i32, align 4
  %4 = getelementptr inbounds nuw i8, ptr %1, i64 8
  %5 = load i8, ptr %4, align 8, !tbaa !14
  %6 = and i8 %5, 63
  switch i8 %6, label %116 [
    i8 3, label %7
    i8 19, label %30
    i8 4, label %52
    i8 20, label %65
    i8 1, label %77
    i8 17, label %80
    i8 2, label %88
    i8 22, label %102
  ]

7:                                                ; preds = %2
  %8 = load i64, ptr %1, align 8, !tbaa !16
  %9 = icmp ult i64 %8, 2147483648
  %10 = getelementptr inbounds nuw i8, ptr %0, i64 24
  %11 = load ptr, ptr %10, align 8, !tbaa !18
  br i1 %9, label %12, label %21

12:                                               ; preds = %7
  %13 = trunc nuw nsw i64 %8 to i32
  %14 = getelementptr inbounds nuw i8, ptr %0, i64 11
  %15 = load i8, ptr %14, align 1, !tbaa !20
  %16 = zext nneg i8 %15 to i32
  %notmask9.i = shl nsw i32 -1, %16
  %17 = xor i32 %notmask9.i, -1
  %18 = or i32 %17, 1
  %19 = urem i32 %13, %18
  %20 = zext nneg i32 %19 to i64
  br label %hashint.exit

21:                                               ; preds = %7
  %22 = getelementptr inbounds nuw i8, ptr %0, i64 11
  %23 = load i8, ptr %22, align 1, !tbaa !20
  %24 = zext nneg i8 %23 to i32
  %notmask.i = shl nsw i32 -1, %24
  %25 = xor i32 %notmask.i, -1
  %26 = or i32 %25, 1
  %27 = zext nneg i32 %26 to i64
  %28 = urem i64 %8, %27
  br label %hashint.exit

hashint.exit:                                     ; preds = %12, %21
  %.sink.i = phi i64 [ %28, %21 ], [ %20, %12 ]
  %29 = getelementptr inbounds nuw %union.Node, ptr %11, i64 %.sink.i
  br label %130

30:                                               ; preds = %2
  %31 = load double, ptr %1, align 8, !tbaa !16
  %32 = getelementptr inbounds nuw i8, ptr %0, i64 24
  %33 = load ptr, ptr %32, align 8, !tbaa !18
  call void @llvm.lifetime.start.p0(i64 4, ptr nonnull %3) #13
  %34 = call double @frexp(double noundef %31, ptr noundef nonnull %3) #13
  %35 = fmul double %34, 0x41E0000000000000
  %36 = fcmp oge double %35, 0xC3E0000000000000
  %37 = fcmp olt double %35, 0x43E0000000000000
  %or.cond.i = and i1 %36, %37
  br i1 %or.cond.i, label %38, label %l_hashfloat.exit

38:                                               ; preds = %30
  %39 = fptosi double %35 to i64
  %40 = load i32, ptr %3, align 4, !tbaa !23
  %41 = trunc i64 %39 to i32
  %42 = add i32 %40, %41
  %.lobit.i = ashr i32 %42, 31
  %43 = xor i32 %.lobit.i, %42
  br label %l_hashfloat.exit

l_hashfloat.exit:                                 ; preds = %30, %38
  %.0.i = phi i32 [ %43, %38 ], [ 0, %30 ]
  call void @llvm.lifetime.end.p0(i64 4, ptr nonnull %3) #13
  %44 = getelementptr inbounds nuw i8, ptr %0, i64 11
  %45 = load i8, ptr %44, align 1, !tbaa !20
  %46 = zext nneg i8 %45 to i32
  %notmask36 = shl nsw i32 -1, %46
  %47 = xor i32 %notmask36, -1
  %48 = or i32 %47, 1
  %49 = urem i32 %.0.i, %48
  %50 = zext nneg i32 %49 to i64
  %51 = getelementptr inbounds nuw %union.Node, ptr %33, i64 %50
  br label %130

52:                                               ; preds = %2
  %53 = load ptr, ptr %1, align 8, !tbaa !16
  %54 = getelementptr inbounds nuw i8, ptr %0, i64 24
  %55 = load ptr, ptr %54, align 8, !tbaa !18
  %56 = getelementptr inbounds nuw i8, ptr %53, i64 12
  %57 = load i32, ptr %56, align 4, !tbaa !25
  %58 = getelementptr inbounds nuw i8, ptr %0, i64 11
  %59 = load i8, ptr %58, align 1, !tbaa !20
  %60 = zext nneg i8 %59 to i32
  %notmask35 = shl nsw i32 -1, %60
  %61 = xor i32 %notmask35, -1
  %62 = and i32 %57, %61
  %63 = zext nneg i32 %62 to i64
  %64 = getelementptr inbounds nuw %union.Node, ptr %55, i64 %63
  br label %130

65:                                               ; preds = %2
  %66 = load ptr, ptr %1, align 8, !tbaa !16
  %67 = getelementptr inbounds nuw i8, ptr %0, i64 24
  %68 = load ptr, ptr %67, align 8, !tbaa !18
  %69 = tail call i32 @luaS_hashlongstr(ptr noundef %66) #13
  %70 = getelementptr inbounds nuw i8, ptr %0, i64 11
  %71 = load i8, ptr %70, align 1, !tbaa !20
  %72 = zext nneg i8 %71 to i32
  %notmask34 = shl nsw i32 -1, %72
  %73 = xor i32 %notmask34, -1
  %74 = and i32 %69, %73
  %75 = zext nneg i32 %74 to i64
  %76 = getelementptr inbounds nuw %union.Node, ptr %68, i64 %75
  br label %130

77:                                               ; preds = %2
  %78 = getelementptr inbounds nuw i8, ptr %0, i64 24
  %79 = load ptr, ptr %78, align 8, !tbaa !18
  br label %130

80:                                               ; preds = %2
  %81 = getelementptr inbounds nuw i8, ptr %0, i64 24
  %82 = load ptr, ptr %81, align 8, !tbaa !18
  %83 = getelementptr inbounds nuw i8, ptr %0, i64 11
  %84 = load i8, ptr %83, align 1, !tbaa !20
  %85 = icmp ne i8 %84, 0
  %86 = zext i1 %85 to i64
  %87 = getelementptr inbounds nuw %union.Node, ptr %82, i64 %86
  br label %130

88:                                               ; preds = %2
  %89 = load ptr, ptr %1, align 8, !tbaa !16
  %90 = getelementptr inbounds nuw i8, ptr %0, i64 24
  %91 = load ptr, ptr %90, align 8, !tbaa !18
  %92 = ptrtoint ptr %89 to i64
  %93 = trunc i64 %92 to i32
  %94 = getelementptr inbounds nuw i8, ptr %0, i64 11
  %95 = load i8, ptr %94, align 1, !tbaa !20
  %96 = zext nneg i8 %95 to i32
  %notmask32 = shl nsw i32 -1, %96
  %97 = xor i32 %notmask32, -1
  %98 = or i32 %97, 1
  %99 = urem i32 %93, %98
  %100 = zext nneg i32 %99 to i64
  %101 = getelementptr inbounds nuw %union.Node, ptr %91, i64 %100
  br label %130

102:                                              ; preds = %2
  %103 = load ptr, ptr %1, align 8, !tbaa !16
  %104 = getelementptr inbounds nuw i8, ptr %0, i64 24
  %105 = load ptr, ptr %104, align 8, !tbaa !18
  %106 = ptrtoint ptr %103 to i64
  %107 = trunc i64 %106 to i32
  %108 = getelementptr inbounds nuw i8, ptr %0, i64 11
  %109 = load i8, ptr %108, align 1, !tbaa !20
  %110 = zext nneg i8 %109 to i32
  %notmask = shl nsw i32 -1, %110
  %111 = xor i32 %notmask, -1
  %112 = or i32 %111, 1
  %113 = urem i32 %107, %112
  %114 = zext nneg i32 %113 to i64
  %115 = getelementptr inbounds nuw %union.Node, ptr %105, i64 %114
  br label %130

116:                                              ; preds = %2
  %117 = load ptr, ptr %1, align 8, !tbaa !16
  %118 = getelementptr inbounds nuw i8, ptr %0, i64 24
  %119 = load ptr, ptr %118, align 8, !tbaa !18
  %120 = ptrtoint ptr %117 to i64
  %121 = trunc i64 %120 to i32
  %122 = getelementptr inbounds nuw i8, ptr %0, i64 11
  %123 = load i8, ptr %122, align 1, !tbaa !20
  %124 = zext nneg i8 %123 to i32
  %notmask37 = shl nsw i32 -1, %124
  %125 = xor i32 %notmask37, -1
  %126 = or i32 %125, 1
  %127 = urem i32 %121, %126
  %128 = zext nneg i32 %127 to i64
  %129 = getelementptr inbounds nuw %union.Node, ptr %119, i64 %128
  br label %130

130:                                              ; preds = %116, %102, %88, %80, %77, %65, %52, %l_hashfloat.exit, %hashint.exit
  %.0 = phi ptr [ %129, %116 ], [ %115, %102 ], [ %101, %88 ], [ %87, %80 ], [ %79, %77 ], [ %76, %65 ], [ %64, %52 ], [ %51, %l_hashfloat.exit ], [ %29, %hashint.exit ]
  ret ptr %.0
}